target datalayout = "e-m:e-p270:32:32-p271:32:32-p272:64:64-i64:64-i128:128-f80:128-n8:16:32:64-S128"
target triple = "x86_64-pc-linux-gnu"

%struct._zend_phpdbg_globals = type { [11 x %struct._zend_array], %struct._zend_array, %struct._zend_array, ptr, ptr, %struct.phpdbg_frame_t, i32, ptr, %struct.phpdbg_lexer_data, ptr, %struct.sigaction, i32, i64, %struct.phpdbg_btree, %struct.phpdbg_btree, %struct._zend_array, %struct._zend_array, %struct._zend_array, %struct._zend_array, ptr, ptr, i8, ptr, ptr, ptr, i64, ptr, %struct._zval_struct, i32, i32, i8, i8, ptr, ptr, ptr, %struct._zend_array, ptr, ptr, ptr, [3 x %struct.anon.10], ptr, %struct.anon.11, i64, [2 x ptr], [3 x ptr], ptr, i8, ptr, ptr, [500 x i8], i32, %struct.phpdbg_signal_safe_mem, ptr, i64, ptr, i64 }
%struct.phpdbg_frame_t = type { i32, ptr, ptr }
%struct.phpdbg_lexer_data = type { i32, ptr, ptr, ptr, ptr, i32 }
%struct.sigaction = type { %union.anon.4, %struct.__sigset_t, i32, ptr }
%union.anon.4 = type { ptr }
%struct.__sigset_t = type { [16 x i64] }
%struct.phpdbg_btree = type { i64, i64, i8, ptr }
%struct._zval_struct = type { %union._zend_value, %union.anon.6, %union.anon.9 }
%union._zend_value = type { i64 }
%union.anon.6 = type { i32 }
%union.anon.9 = type { i32 }
%struct._zend_array = type { %struct._zend_refcounted_h, %union.anon.1, i32, %union.anon.3, i32, i32, i32, i32, i64, ptr }
%struct._zend_refcounted_h = type { i32, %union.anon }
%union.anon = type { i32 }
%union.anon.1 = type { i32 }
%union.anon.3 = type { ptr }
%struct.anon.10 = type { i32 }
%struct.anon.11 = type { i8, i32, i32, ptr, i32 }
%struct.phpdbg_signal_safe_mem = type { ptr, i8, ptr, ptr }
%struct._phpdbg_param = type { i32, i64, i64, %struct.anon, %struct.anon.0, ptr, i64, ptr, ptr }
%struct.anon = type { ptr, i64 }
%struct.anon.0 = type { ptr, ptr }
%struct._phpdbg_color_t = type { ptr, i64, [12 x i8] }

@phpdbg_globals = external global %struct._zend_phpdbg_globals, align 8
@.str.37 = private unnamed_addr constant [40 x i8] c"Failed to find the requested color (%s)\00", align 1
@.str.38 = private unnamed_addr constant [32 x i8] c"setting prompt color to %s (%s)\00", align 1
@.str.39 = private unnamed_addr constant [31 x i8] c"setting error color to %s (%s)\00", align 1
@.str.40 = private unnamed_addr constant [32 x i8] c"setting notice color to %s (%s)\00", align 1
@.str.41 = private unnamed_addr constant [42 x i8] c"Failed to find the requested element (%s)\00", align 1

; Function Attrs: nounwind uwtable
define hidden i32 @phpdbg_do_set_color(ptr noundef %0) #0 {
  %2 = alloca i32, align 4
  %3 = alloca ptr, align 8
  %4 = alloca ptr, align 8
  store ptr %0, ptr %3, align 8
  %5 = load ptr, ptr %3, align 8
  %6 = getelementptr inbounds %struct._phpdbg_param, ptr %5, i32 0, i32 7
  %7 = load ptr, ptr %6, align 8
  %8 = getelementptr inbounds %struct._phpdbg_param, ptr %7, i32 0, i32 5
  %9 = load ptr, ptr %8, align 8
  %10 = load ptr, ptr %3, align 8
  %11 = getelementptr inbounds %struct._phpdbg_param, ptr %10, i32 0, i32 7
  %12 = load ptr, ptr %11, align 8
  %13 = getelementptr inbounds %struct._phpdbg_param, ptr %12, i32 0, i32 6
  %14 = load i64, ptr %13, align 8
  %15 = call ptr @phpdbg_get_color(ptr noundef %9, i64 noundef %14)
  store ptr %15, ptr %4, align 8
  %16 = load ptr, ptr %4, align 8
  %17 = icmp ne ptr %16, null
  br i1 %17, label %26, label %18

18:                                               ; preds = %1
  %19 = load i32, ptr getelementptr inbounds (%struct._zend_phpdbg_globals, ptr @phpdbg_globals, i32 0, i32 39, i64 1), align 4
  %20 = load ptr, ptr %3, align 8
  %21 = getelementptr inbounds %struct._phpdbg_param, ptr %20, i32 0, i32 7
  %22 = load ptr, ptr %21, align 8
  %23 = getelementptr inbounds %struct._phpdbg_param, ptr %22, i32 0, i32 5
  %24 = load ptr, ptr %23, align 8
  %25 = call i32 (i32, i32, ptr, ...) @phpdbg_print(i32 noundef 1, i32 noundef %19, ptr noundef @.str.37, ptr noundef %24)
  store i32 0, ptr %2, align 4
  br label %76

26:                                               ; preds = %1
  %27 = load ptr, ptr %3, align 8
  %28 = getelementptr inbounds %struct._phpdbg_param, ptr %27, i32 0, i32 5
  %29 = load ptr, ptr %28, align 8
  %30 = load ptr, ptr %3, align 8
  %31 = getelementptr inbounds %struct._phpdbg_param, ptr %30, i32 0, i32 6
  %32 = load i64, ptr %31, align 8
  %33 = call i32 @phpdbg_get_element(ptr noundef %29, i64 noundef %32)
  switch i32 %33, label %69 [
    i32 0, label %34
    i32 1, label %49
    i32 2, label %59
  ]

34:                                               ; preds = %26
  %35 = load i32, ptr getelementptr inbounds (%struct._zend_phpdbg_globals, ptr @phpdbg_globals, i32 0, i32 39, i64 1), align 4
  %36 = load ptr, ptr %4, align 8
  %37 = getelementptr inbounds %struct._phpdbg_color_t, ptr %36, i32 0, i32 0
  %38 = load ptr, ptr %37, align 8
  %39 = load ptr, ptr %4, align 8
  %40 = getelementptr inbounds %struct._phpdbg_color_t, ptr %39, i32 0, i32 2
  %41 = getelementptr inbounds [12 x i8], ptr %40, i64 0, i64 0
  %42 = call i32 (i32, i32, ptr, ...) @phpdbg_print(i32 noundef 2, i32 noundef %35, ptr noundef @.str.38, ptr noundef %38, ptr noundef %41)
  %43 = load ptr, ptr getelementptr inbounds (%struct._zend_phpdbg_globals, ptr @phpdbg_globals, i32 0, i32 43, i64 1), align 8
  %44 = icmp ne ptr %43, null
  br i1 %44, label %45, label %47

45:                                               ; preds = %34
  %46 = load ptr, ptr getelementptr inbounds (%struct._zend_phpdbg_globals, ptr @phpdbg_globals, i32 0, i32 43, i64 1), align 8
  call void @free(ptr noundef %46) #4
  store ptr null, ptr getelementptr inbounds (%struct._zend_phpdbg_globals, ptr @phpdbg_globals, i32 0, i32 43, i64 1), align 8
  br label %47

47:                                               ; preds = %45, %34
  %48 = load ptr, ptr %4, align 8
  call void @phpdbg_set_color(i32 noundef 0, ptr noundef %48)
  br label %75

49:                                               ; preds = %26
  %50 = load i32, ptr getelementptr inbounds (%struct._zend_phpdbg_globals, ptr @phpdbg_globals, i32 0, i32 39, i64 1), align 4
  %51 = load ptr, ptr %4, align 8
  %52 = getelementptr inbounds %struct._phpdbg_color_t, ptr %51, i32 0, i32 0
  %53 = load ptr, ptr %52, align 8
  %54 = load ptr, ptr %4, align 8
  %55 = getelementptr inbounds %struct._phpdbg_color_t, ptr %54, i32 0, i32 2
  %56 = getelementptr inbounds [12 x i8], ptr %55, i64 0, i64 0
  %57 = call i32 (i32, i32, ptr, ...) @phpdbg_print(i32 noundef 2, i32 noundef %50, ptr noundef @.str.39, ptr noundef %53, ptr noundef %56)
  %58 = load ptr, ptr %4, align 8
  call void @phpdbg_set_color(i32 noundef 1, ptr noundef %58)
  br label %75

59:                                               ; preds = %26
  %60 = load i32, ptr getelementptr inbounds (%struct._zend_phpdbg_globals, ptr @phpdbg_globals, i32 0, i32 39, i64 1), align 4
  %61 = load ptr, ptr %4, align 8
  %62 = getelementptr inbounds %struct._phpdbg_color_t, ptr %61, i32 0, i32 0
  %63 = load ptr, ptr %62, align 8
  %64 = load ptr, ptr %4, align 8
  %65 = getelementptr inbounds %struct._phpdbg_color_t, ptr %64, i32 0, i32 2
  %66 = getelementptr inbounds [12 x i8], ptr %65, i64 0, i64 0
  %67 = call i32 (i32, i32, ptr, ...) @phpdbg_print(i32 noundef 2, i32 noundef %60, ptr noundef @.str.40, ptr noundef %63, ptr noundef %66)
  %68 = load ptr, ptr %4, align 8
  call void @phpdbg_set_color(i32 noundef 2, ptr noundef %68)
  br label %75

69:                                               ; preds = %26
  %70 = load i32, ptr getelementptr inbounds (%struct._zend_phpdbg_globals, ptr @phpdbg_globals, i32 0, i32 39, i64 1), align 4
  %71 = load ptr, ptr %3, align 8
  %72 = getelementptr inbounds %struct._phpdbg_param, ptr %71, i32 0, i32 5
  %73 = load ptr, ptr %72, align 8
  %74 = call i32 (i32, i32, ptr, ...) @phpdbg_print(i32 noundef 1, i32 noundef %70, ptr noundef @.str.41, ptr noundef %73)
  br label %75

75:                                               ; preds = %69, %59, %49, %47
  store i32 0, ptr %2, align 4
  br label %76

76:                                               ; preds = %75, %18
  %77 = load i32, ptr %2, align 4
  ret i32 %77
}