; Function Attrs: nounwind uwtable
define hidden noundef i32 @phpdbg_do_set_color(ptr nocapture noundef readonly %0) #0 {
  %2 = getelementptr inbounds i8, ptr %0, i64 72
  %3 = load ptr, ptr %2, align 8
  %4 = getelementptr inbounds i8, ptr %3, i64 56
  %5 = load ptr, ptr %4, align 8
  %6 = getelementptr inbounds i8, ptr %3, i64 64
  %7 = load i64, ptr %6, align 8
  %8 = tail call ptr @phpdbg_get_color(ptr noundef %5, i64 noundef %7) #4
  %.not = icmp eq ptr %8, null
  br i1 %.not, label %9, label %15

9:                                                ; preds = %1
  %10 = load i32, ptr getelementptr inbounds (%struct._zend_phpdbg_globals, ptr @phpdbg_globals, i64 0, i32 39, i64 1), align 4
  %11 = load ptr, ptr %2, align 8
  %12 = getelementptr inbounds i8, ptr %11, i64 56
  %13 = load ptr, ptr %12, align 8
  %14 = tail call i32 (i32, i32, ptr, ...) @phpdbg_print(i32 noundef 1, i32 noundef %10, ptr noundef nonnull @.str.37, ptr noundef %13) #4
  br label %40

15:                                               ; preds = %1
  %16 = getelementptr inbounds i8, ptr %0, i64 56
  %17 = load ptr, ptr %16, align 8
  %18 = getelementptr inbounds i8, ptr %0, i64 64
  %19 = load i64, ptr %18, align 8
  %20 = tail call i32 @phpdbg_get_element(ptr noundef %17, i64 noundef %19) #4
  %21 = load i32, ptr getelementptr inbounds (%struct._zend_phpdbg_globals, ptr @phpdbg_globals, i64 0, i32 39, i64 1), align 4
  switch i32 %20, label %37 [
    i32 0, label %22
    i32 1, label %29
    i32 2, label %33
  ]

22:                                               ; preds = %15
  %23 = load ptr, ptr %8, align 8
  %24 = getelementptr inbounds i8, ptr %8, i64 16
  %25 = tail call i32 (i32, i32, ptr, ...) @phpdbg_print(i32 noundef 2, i32 noundef %21, ptr noundef nonnull @.str.38, ptr noundef %23, ptr noundef nonnull %24) #4
  %26 = load ptr, ptr getelementptr inbounds (%struct._zend_phpdbg_globals, ptr @phpdbg_globals, i64 0, i32 43, i64 1), align 8
  %.not17 = icmp eq ptr %26, null
  br i1 %.not17, label %28, label %27

27:                                               ; preds = %22
  tail call void @free(ptr noundef nonnull %26) #4
  store ptr null, ptr getelementptr inbounds (%struct._zend_phpdbg_globals, ptr @phpdbg_globals, i64 0, i32 43, i64 1), align 8
  br label %28

28:                                               ; preds = %27, %22
  tail call void @phpdbg_set_color(i32 noundef 0, ptr noundef nonnull %8) #4
  br label %40

29:                                               ; preds = %15
  %30 = load ptr, ptr %8, align 8
  %31 = getelementptr inbounds i8, ptr %8, i64 16
  %32 = tail call i32 (i32, i32, ptr, ...) @phpdbg_print(i32 noundef 2, i32 noundef %21, ptr noundef nonnull @.str.39, ptr noundef %30, ptr noundef nonnull %31) #4
  tail call void @phpdbg_set_color(i32 noundef 1, ptr noundef nonnull %8) #4
  br label %40

33:                                               ; preds = %15
  %34 = load ptr, ptr %8, align 8
  %35 = getelementptr inbounds i8, ptr %8, i64 16
  %36 = tail call i32 (i32, i32, ptr, ...) @phpdbg_print(i32 noundef 2, i32 noundef %21, ptr noundef nonnull @.str.40, ptr noundef %34, ptr noundef nonnull %35) #4
  tail call void @phpdbg_set_color(i32 noundef 2, ptr noundef nonnull %8) #4
  br label %40

37:                                               ; preds = %15
  %38 = load ptr, ptr %16, align 8
  %39 = tail call i32 (i32, i32, ptr, ...) @phpdbg_print(i32 noundef 1, i32 noundef %21, ptr noundef nonnull @.str.41, ptr noundef %38) #4
  br label %40

40:                                               ; preds = %28, %29, %33, %37, %9
  ret i32 0
}